target datalayout = "e-m:e-p270:32:32-p271:32:32-p272:64:64-i64:64-i128:128-f80:128-n8:16:32:64-S128"
target triple = "x86_64-unknown-linux-gnu"

%struct.TPMEmulator = type { %struct.TPMBackend, ptr, %struct.CharBackend, ptr, i32, i64, i8, ptr, %struct.QemuMutex, i8, %struct.TPMBlobBuffers, i8, ptr }
%struct.TPMBackend = type { %struct.Object, ptr, i8, i8, ptr, ptr, %struct.anon }
%struct.Object = type { ptr, ptr, ptr, i32, ptr }
%struct.anon = type { ptr, ptr }
%struct.CharBackend = type { ptr, ptr, ptr, ptr, ptr, ptr, i32, i32 }
%struct.QemuMutex = type { %union.pthread_mutex_t, i8 }
%union.pthread_mutex_t = type { %struct.__pthread_mutex_s }
%struct.__pthread_mutex_s = type { i32, i32, i32, i32, i32, i16, i16, %struct.__pthread_internal_list }
%struct.__pthread_internal_list = type { ptr, ptr }
%struct.TPMBlobBuffers = type { i32, %struct.TPMSizedBuffer, i32, %struct.TPMSizedBuffer, i32, %struct.TPMSizedBuffer }
%struct.TPMSizedBuffer = type { i32, ptr }

@.str.2 = private unnamed_addr constant [36 x i8] c"../qemu/backends/tpm/tpm_emulator.c\00", align 1
@__func__.tpm_emulator_block_migration = private unnamed_addr constant [29 x i8] c"tpm_emulator_block_migration\00", align 1
@.str.97 = private unnamed_addr constant [60 x i8] c"Migration disabled: TPM emulator does not support migration\00", align 1

; Function Attrs: nounwind sspstrong uwtable
define internal i32 @tpm_emulator_block_migration(ptr noundef %tpm_emu) #0 {
entry:
  %retval = alloca i32, align 4
  %tpm_emu.addr = alloca ptr, align 8
  %err = alloca ptr, align 8
  %caps = alloca i64, align 8
  store ptr %tpm_emu, ptr %tpm_emu.addr, align 8
  store ptr null, ptr %err, align 8
  store i64 1792, ptr %caps, align 8
  %0 = load ptr, ptr %tpm_emu.addr, align 8
  %caps1 = getelementptr inbounds %struct.TPMEmulator, ptr %0, i32 0, i32 5
  %1 = load i64, ptr %caps1, align 8
  %2 = load i64, ptr %caps, align 8
  %and = and i64 %1, %2
  %3 = load i64, ptr %caps, align 8
  %cmp = icmp eq i64 %and, %3
  br i1 %cmp, label %if.end5, label %if.then

if.then:                                          ; preds = %entry
  %4 = load ptr, ptr %tpm_emu.addr, align 8
  %migration_blocker = getelementptr inbounds %struct.TPMEmulator, ptr %4, i32 0, i32 7
  call void (ptr, ptr, i32, ptr, ptr, ...) @error_setg_internal(ptr noundef %migration_blocker, ptr noundef @.str.2, i32 noundef 536, ptr noundef @__func__.tpm_emulator_block_migration, ptr noundef @.str.97)
  %5 = load ptr, ptr %tpm_emu.addr, align 8
  %migration_blocker2 = getelementptr inbounds %struct.TPMEmulator, ptr %5, i32 0, i32 7
  %call = call i32 @migrate_add_blocker(ptr noundef %migration_blocker2, ptr noundef %err)
  %cmp3 = icmp slt i32 %call, 0
  br i1 %cmp3, label %if.then4, label %if.end

if.then4:                                         ; preds = %if.then
  %6 = load ptr, ptr %err, align 8
  call void @error_report_err(ptr noundef %6)
  store i32 -1, ptr %retval, align 4
  br label %return

if.end:                                           ; preds = %if.then
  br label %if.end5

if.end5:                                          ; preds = %if.end, %entry
  store i32 0, ptr %retval, align 4
  br label %return

return:                                           ; preds = %if.end5, %if.then4
  %7 = load i32, ptr %retval, align 4
  ret i32 %7
}