; Function Attrs: nounwind sspstrong uwtable
define internal fastcc range(i32 -1, 1) i32 @tpm_emulator_block_migration(ptr noundef %tpm_emu) unnamed_addr #0 {
entry:
  %err = alloca ptr, align 8
  store ptr null, ptr %err, align 8
  %caps1 = getelementptr inbounds nuw i8, ptr %tpm_emu, i64 168
  %0 = load i64, ptr %caps1, align 8
  %and = and i64 %0, 1792
  %cmp = icmp eq i64 %and, 1792
  br i1 %cmp, label %return, label %if.then

if.then:                                          ; preds = %entry
  %migration_blocker = getelementptr inbounds nuw i8, ptr %tpm_emu, i64 184
  tail call void (ptr, ptr, i32, ptr, ptr, ...) @error_setg_internal(ptr noundef nonnull %migration_blocker, ptr noundef nonnull @.str.2, i32 noundef 536, ptr noundef nonnull @__func__.tpm_emulator_block_migration, ptr noundef nonnull @.str.97) #12
  %call = call i32 @migrate_add_blocker(ptr noundef nonnull %migration_blocker, ptr noundef nonnull %err) #12
  %cmp3 = icmp slt i32 %call, 0
  br i1 %cmp3, label %if.then4, label %return

if.then4:                                         ; preds = %if.then
  %1 = load ptr, ptr %err, align 8
  call void @error_report_err(ptr noundef %1) #12
  br label %return

return:                                           ; preds = %entry, %if.then, %if.then4
  %retval.0 = phi i32 [ -1, %if.then4 ], [ 0, %if.then ], [ 0, %entry ]
  ret i32 %retval.0
}